target datalayout = "e-m:e-p270:32:32-p271:32:32-p272:64:64-i64:64-i128:128-f80:128-n8:16:32:64-S128"
target triple = "x86_64-pc-linux-gnu"

%"class.std::basic_ostream" = type { ptr, %"class.std::basic_ios" }
%"class.std::basic_ios" = type { %"class.std::ios_base", ptr, i8, i8, ptr, ptr, ptr, ptr }
%"class.std::ios_base" = type { ptr, i64, i64, i32, i32, i32, ptr, %"struct.std::ios_base::_Words", [8 x %"struct.std::ios_base::_Words"], i32, ptr, %"class.std::locale" }
%"struct.std::ios_base::_Words" = type { ptr, i64 }
%"class.std::locale" = type { ptr }
%class.cache_sim_t = type <{ ptr, %class.lfsr_t, [4 x i8], ptr, i64, i64, i64, i64, ptr, i64, i64, i64, i64, i64, i64, i64, %"class.std::__cxx11::basic_string", i8, [7 x i8] }>
%class.lfsr_t = type { i32 }
%"class.std::__cxx11::basic_string" = type { %"struct.std::__cxx11::basic_string<char>::_Alloc_hider", i64, %union.anon }
%"struct.std::__cxx11::basic_string<char>::_Alloc_hider" = type { ptr }
%union.anon = type { i64, [8 x i8] }
%"struct.std::_Setprecision" = type { i32 }

@_ZSt4cout = external global %"class.std::basic_ostream", align 8
@.str = private unnamed_addr constant [2 x i8] c" \00", align 1
@.str.1 = private unnamed_addr constant [24 x i8] c"Bytes Read:            \00", align 1
@.str.2 = private unnamed_addr constant [24 x i8] c"Bytes Written:         \00", align 1
@.str.3 = private unnamed_addr constant [24 x i8] c"Read Accesses:         \00", align 1
@.str.4 = private unnamed_addr constant [24 x i8] c"Write Accesses:        \00", align 1
@.str.5 = private unnamed_addr constant [24 x i8] c"Read Misses:           \00", align 1
@.str.6 = private unnamed_addr constant [24 x i8] c"Write Misses:          \00", align 1
@.str.7 = private unnamed_addr constant [24 x i8] c"Writebacks:            \00", align 1
@.str.8 = private unnamed_addr constant [24 x i8] c"Miss Rate:             \00", align 1

; Function Attrs: mustprogress nounwind uwtable
define linkonce_odr i32 @_ZSt12setprecisioni(i32 noundef %0) #5 comdat {
  %2 = alloca %"struct.std::_Setprecision", align 4
  %3 = alloca i32, align 4
  store i32 %0, ptr %3, align 4
  %4 = getelementptr inbounds %"struct.std::_Setprecision", ptr %2, i32 0, i32 0
  %5 = load i32, ptr %3, align 4
  store i32 %5, ptr %4, align 4
  %6 = getelementptr inbounds %"struct.std::_Setprecision", ptr %2, i32 0, i32 0
  %7 = load i32, ptr %6, align 4
  ret i32 %7
}

; Function Attrs: mustprogress uwtable
define void @_ZN11cache_sim_t11print_statsEv(ptr noundef nonnull align 8 dereferenceable(153) %0) #4 align 2 {
  %2 = alloca ptr, align 8
  %3 = alloca float, align 4
  %4 = alloca %"struct.std::_Setprecision", align 4
  store ptr %0, ptr %2, align 8
  %5 = load ptr, ptr %2, align 8
  %6 = getelementptr inbounds %class.cache_sim_t, ptr %5, i32 0, i32 10
  %7 = load i64, ptr %6, align 8
  %8 = getelementptr inbounds %class.cache_sim_t, ptr %5, i32 0, i32 13
  %9 = load i64, ptr %8, align 8
  %10 = add i64 %7, %9
  %11 = uitofp i64 %10 to float
  %12 = fmul float 1.000000e+02, %11
  %13 = getelementptr inbounds %class.cache_sim_t, ptr %5, i32 0, i32 9
  %14 = load i64, ptr %13, align 8
  %15 = getelementptr inbounds %class.cache_sim_t, ptr %5, i32 0, i32 12
  %16 = load i64, ptr %15, align 8
  %17 = add i64 %14, %16
  %18 = uitofp i64 %17 to float
  %19 = fdiv float %12, %18
  store float %19, ptr %3, align 4
  %20 = call i32 @_ZSt12setprecisioni(i32 noundef 3)
  %21 = getelementptr inbounds %"struct.std::_Setprecision", ptr %4, i32 0, i32 0
  store i32 %20, ptr %21, align 4
  %22 = getelementptr inbounds %"struct.std::_Setprecision", ptr %4, i32 0, i32 0
  %23 = load i32, ptr %22, align 4
  %24 = call noundef nonnull align 8 dereferenceable(8) ptr @_ZStlsIcSt11char_traitsIcEERSt13basic_ostreamIT_T0_ES6_St13_Setprecision(ptr noundef nonnull align 8 dereferenceable(8) @_ZSt4cout, i32 %23)
  %25 = call noundef nonnull align 8 dereferenceable(8) ptr @_ZNSolsEPFRSt8ios_baseS0_E(ptr noundef nonnull align 8 dereferenceable(8) %24, ptr noundef @_ZSt5fixedRSt8ios_base)
  %26 = getelementptr inbounds %class.cache_sim_t, ptr %5, i32 0, i32 16
  %27 = call noundef nonnull align 8 dereferenceable(8) ptr @_ZStlsIcSt11char_traitsIcESaIcEERSt13basic_ostreamIT_T0_ES7_RKNSt7__cxx1112basic_stringIS4_S5_T1_EE(ptr noundef nonnull align 8 dereferenceable(8) @_ZSt4cout, ptr noundef nonnull align 8 dereferenceable(32) %26)
  %28 = call noundef nonnull align 8 dereferenceable(8) ptr @_ZStlsISt11char_traitsIcEERSt13basic_ostreamIcT_ES5_PKc(ptr noundef nonnull align 8 dereferenceable(8) %27, ptr noundef @.str)
  %29 = call noundef nonnull align 8 dereferenceable(8) ptr @_ZStlsISt11char_traitsIcEERSt13basic_ostreamIcT_ES5_PKc(ptr noundef nonnull align 8 dereferenceable(8) @_ZSt4cout, ptr noundef @.str.1)
  %30 = getelementptr inbounds %class.cache_sim_t, ptr %5, i32 0, i32 11
  %31 = load i64, ptr %30, align 8
  %32 = call noundef nonnull align 8 dereferenceable(8) ptr @_ZNSolsEm(ptr noundef nonnull align 8 dereferenceable(8) %29, i64 noundef %31)
  %33 = call noundef nonnull align 8 dereferenceable(8) ptr @_ZNSolsEPFRSoS_E(ptr noundef nonnull align 8 dereferenceable(8) %32, ptr noundef @_ZSt4endlIcSt11char_traitsIcEERSt13basic_ostreamIT_T0_ES6_)
  %34 = getelementptr inbounds %class.cache_sim_t, ptr %5, i32 0, i32 16
  %35 = call noundef nonnull align 8 dereferenceable(8) ptr @_ZStlsIcSt11char_traitsIcESaIcEERSt13basic_ostreamIT_T0_ES7_RKNSt7__cxx1112basic_stringIS4_S5_T1_EE(ptr noundef nonnull align 8 dereferenceable(8) @_ZSt4cout, ptr noundef nonnull align 8 dereferenceable(32) %34)
  %36 = call noundef nonnull align 8 dereferenceable(8) ptr @_ZStlsISt11char_traitsIcEERSt13basic_ostreamIcT_ES5_PKc(ptr noundef nonnull align 8 dereferenceable(8) %35, ptr noundef @.str)
  %37 = call noundef nonnull align 8 dereferenceable(8) ptr @_ZStlsISt11char_traitsIcEERSt13basic_ostreamIcT_ES5_PKc(ptr noundef nonnull align 8 dereferenceable(8) @_ZSt4cout, ptr noundef @.str.2)
  %38 = getelementptr inbounds %class.cache_sim_t, ptr %5, i32 0, i32 14
  %39 = load i64, ptr %38, align 8
  %40 = call noundef nonnull align 8 dereferenceable(8) ptr @_ZNSolsEm(ptr noundef nonnull align 8 dereferenceable(8) %37, i64 noundef %39)
  %41 = call noundef nonnull align 8 dereferenceable(8) ptr @_ZNSolsEPFRSoS_E(ptr noundef nonnull align 8 dereferenceable(8) %40, ptr noundef @_ZSt4endlIcSt11char_traitsIcEERSt13basic_ostreamIT_T0_ES6_)
  %42 = getelementptr inbounds %class.cache_sim_t, ptr %5, i32 0, i32 16
  %43 = call noundef nonnull align 8 dereferenceable(8) ptr @_ZStlsIcSt11char_traitsIcESaIcEERSt13basic_ostreamIT_T0_ES7_RKNSt7__cxx1112basic_stringIS4_S5_T1_EE(ptr noundef nonnull align 8 dereferenceable(8) @_ZSt4cout, ptr noundef nonnull align 8 dereferenceable(32) %42)
  %44 = call noundef nonnull align 8 dereferenceable(8) ptr @_ZStlsISt11char_traitsIcEERSt13basic_ostreamIcT_ES5_PKc(ptr noundef nonnull align 8 dereferenceable(8) %43, ptr noundef @.str)
  %45 = call noundef nonnull align 8 dereferenceable(8) ptr @_ZStlsISt11char_traitsIcEERSt13basic_ostreamIcT_ES5_PKc(ptr noundef nonnull align 8 dereferenceable(8) @_ZSt4cout, ptr noundef @.str.3)
  %46 = getelementptr inbounds %class.cache_sim_t, ptr %5, i32 0, i32 9
  %47 = load i64, ptr %46, align 8
  %48 = call noundef nonnull align 8 dereferenceable(8) ptr @_ZNSolsEm(ptr noundef nonnull align 8 dereferenceable(8) %45, i64 noundef %47)
  %49 = call noundef nonnull align 8 dereferenceable(8) ptr @_ZNSolsEPFRSoS_E(ptr noundef nonnull align 8 dereferenceable(8) %48, ptr noundef @_ZSt4endlIcSt11char_traitsIcEERSt13basic_ostreamIT_T0_ES6_)
  %50 = getelementptr inbounds %class.cache_sim_t, ptr %5, i32 0, i32 16
  %51 = call noundef nonnull align 8 dereferenceable(8) ptr @_ZStlsIcSt11char_traitsIcESaIcEERSt13basic_ostreamIT_T0_ES7_RKNSt7__cxx1112basic_stringIS4_S5_T1_EE(ptr noundef nonnull align 8 dereferenceable(8) @_ZSt4cout, ptr noundef nonnull align 8 dereferenceable(32) %50)
  %52 = call noundef nonnull align 8 dereferenceable(8) ptr @_ZStlsISt11char_traitsIcEERSt13basic_ostreamIcT_ES5_PKc(ptr noundef nonnull align 8 dereferenceable(8) %51, ptr noundef @.str)
  %53 = call noundef nonnull align 8 dereferenceable(8) ptr @_ZStlsISt11char_traitsIcEERSt13basic_ostreamIcT_ES5_PKc(ptr noundef nonnull align 8 dereferenceable(8) @_ZSt4cout, ptr noundef @.str.4)
  %54 = getelementptr inbounds %class.cache_sim_t, ptr %5, i32 0, i32 12
  %55 = load i64, ptr %54, align 8
  %56 = call noundef nonnull align 8 dereferenceable(8) ptr @_ZNSolsEm(ptr noundef nonnull align 8 dereferenceable(8) %53, i64 noundef %55)
  %57 = call noundef nonnull align 8 dereferenceable(8) ptr @_ZNSolsEPFRSoS_E(ptr noundef nonnull align 8 dereferenceable(8) %56, ptr noundef @_ZSt4endlIcSt11char_traitsIcEERSt13basic_ostreamIT_T0_ES6_)
  %58 = getelementptr inbounds %class.cache_sim_t, ptr %5, i32 0, i32 16
  %59 = call noundef nonnull align 8 dereferenceable(8) ptr @_ZStlsIcSt11char_traitsIcESaIcEERSt13basic_ostreamIT_T0_ES7_RKNSt7__cxx1112basic_stringIS4_S5_T1_EE(ptr noundef nonnull align 8 dereferenceable(8) @_ZSt4cout, ptr noundef nonnull align 8 dereferenceable(32) %58)
  %60 = call noundef nonnull align 8 dereferenceable(8) ptr @_ZStlsISt11char_traitsIcEERSt13basic_ostreamIcT_ES5_PKc(ptr noundef nonnull align 8 dereferenceable(8) %59, ptr noundef @.str)
  %61 = call noundef nonnull align 8 dereferenceable(8) ptr @_ZStlsISt11char_traitsIcEERSt13basic_ostreamIcT_ES5_PKc(ptr noundef nonnull align 8 dereferenceable(8) @_ZSt4cout, ptr noundef @.str.5)
  %62 = getelementptr inbounds %class.cache_sim_t, ptr %5, i32 0, i32 10
  %63 = load i64, ptr %62, align 8
  %64 = call noundef nonnull align 8 dereferenceable(8) ptr @_ZNSolsEm(ptr noundef nonnull align 8 dereferenceable(8) %61, i64 noundef %63)
  %65 = call noundef nonnull align 8 dereferenceable(8) ptr @_ZNSolsEPFRSoS_E(ptr noundef nonnull align 8 dereferenceable(8) %64, ptr noundef @_ZSt4endlIcSt11char_traitsIcEERSt13basic_ostreamIT_T0_ES6_)
  %66 = getelementptr inbounds %class.cache_sim_t, ptr %5, i32 0, i32 16
  %67 = call noundef nonnull align 8 dereferenceable(8) ptr @_ZStlsIcSt11char_traitsIcESaIcEERSt13basic_ostreamIT_T0_ES7_RKNSt7__cxx1112basic_stringIS4_S5_T1_EE(ptr noundef nonnull align 8 dereferenceable(8) @_ZSt4cout, ptr noundef nonnull align 8 dereferenceable(32) %66)
  %68 = call noundef nonnull align 8 dereferenceable(8) ptr @_ZStlsISt11char_traitsIcEERSt13basic_ostreamIcT_ES5_PKc(ptr noundef nonnull align 8 dereferenceable(8) %67, ptr noundef @.str)
  %69 = call noundef nonnull align 8 dereferenceable(8) ptr @_ZStlsISt11char_traitsIcEERSt13basic_ostreamIcT_ES5_PKc(ptr noundef nonnull align 8 dereferenceable(8) @_ZSt4cout, ptr noundef @.str.6)
  %70 = getelementptr inbounds %class.cache_sim_t, ptr %5, i32 0, i32 13
  %71 = load i64, ptr %70, align 8
  %72 = call noundef nonnull align 8 dereferenceable(8) ptr @_ZNSolsEm(ptr noundef nonnull align 8 dereferenceable(8) %69, i64 noundef %71)
  %73 = call noundef nonnull align 8 dereferenceable(8) ptr @_ZNSolsEPFRSoS_E(ptr noundef nonnull align 8 dereferenceable(8) %72, ptr noundef @_ZSt4endlIcSt11char_traitsIcEERSt13basic_ostreamIT_T0_ES6_)
  %74 = getelementptr inbounds %class.cache_sim_t, ptr %5, i32 0, i32 16
  %75 = call noundef nonnull align 8 dereferenceable(8) ptr @_ZStlsIcSt11char_traitsIcESaIcEERSt13basic_ostreamIT_T0_ES7_RKNSt7__cxx1112basic_stringIS4_S5_T1_EE(ptr noundef nonnull align 8 dereferenceable(8) @_ZSt4cout, ptr noundef nonnull align 8 dereferenceable(32) %74)
  %76 = call noundef nonnull align 8 dereferenceable(8) ptr @_ZStlsISt11char_traitsIcEERSt13basic_ostreamIcT_ES5_PKc(ptr noundef nonnull align 8 dereferenceable(8) %75, ptr noundef @.str)
  %77 = call noundef nonnull align 8 dereferenceable(8) ptr @_ZStlsISt11char_traitsIcEERSt13basic_ostreamIcT_ES5_PKc(ptr noundef nonnull align 8 dereferenceable(8) @_ZSt4cout, ptr noundef @.str.7)
  %78 = getelementptr inbounds %class.cache_sim_t, ptr %5, i32 0, i32 15
  %79 = load i64, ptr %78, align 8
  %80 = call noundef nonnull align 8 dereferenceable(8) ptr @_ZNSolsEm(ptr noundef nonnull align 8 dereferenceable(8) %77, i64 noundef %79)
  %81 = call noundef nonnull align 8 dereferenceable(8) ptr @_ZNSolsEPFRSoS_E(ptr noundef nonnull align 8 dereferenceable(8) %80, ptr noundef @_ZSt4endlIcSt11char_traitsIcEERSt13basic_ostreamIT_T0_ES6_)
  %82 = getelementptr inbounds %class.cache_sim_t, ptr %5, i32 0, i32 16
  %83 = call noundef nonnull align 8 dereferenceable(8) ptr @_ZStlsIcSt11char_traitsIcESaIcEERSt13basic_ostreamIT_T0_ES7_RKNSt7__cxx1112basic_stringIS4_S5_T1_EE(ptr noundef nonnull align 8 dereferenceable(8) @_ZSt4cout, ptr noundef nonnull align 8 dereferenceable(32) %82)
  %84 = call noundef nonnull align 8 dereferenceable(8) ptr @_ZStlsISt11char_traitsIcEERSt13basic_ostreamIcT_ES5_PKc(ptr noundef nonnull align 8 dereferenceable(8) %83, ptr noundef @.str)
  %85 = call noundef nonnull align 8 dereferenceable(8) ptr @_ZStlsISt11char_traitsIcEERSt13basic_ostreamIcT_ES5_PKc(ptr noundef nonnull align 8 dereferenceable(8) @_ZSt4cout, ptr noundef @.str.8)
  %86 = load float, ptr %3, align 4
  %87 = call noundef nonnull align 8 dereferenceable(8) ptr @_ZNSolsEf(ptr noundef nonnull align 8 dereferenceable(8) %85, float noundef %86)
  %88 = call noundef nonnull align 8 dereferenceable(8) ptr @_ZStlsISt11char_traitsIcEERSt13basic_ostreamIcT_ES5_c(ptr noundef nonnull align 8 dereferenceable(8) %87, i8 noundef signext 37)
  %89 = call noundef nonnull align 8 dereferenceable(8) ptr @_ZNSolsEPFRSoS_E(ptr noundef nonnull align 8 dereferenceable(8) %88, ptr noundef @_ZSt4endlIcSt11char_traitsIcEERSt13basic_ostreamIT_T0_ES6_)
  ret void
}